; ModuleID = 'source-C-CXX/14/288.cpp'
source_filename = "source-C-CXX/14/288.cpp"
target datalayout = "e-m:e-p270:32:32-p271:32:32-p272:64:64-i64:64-f80:128-n8:16:32:64-S128"
target triple = "x86_64-pc-linux-gnu"

%"class.std::ios_base::Init" = type { i8 }
%"class.std::basic_istream" = type { i32 (...)**, i64, %"class.std::basic_ios" }
%"class.std::basic_ios" = type { %"class.std::ios_base", %"class.std::basic_ostream"*, i8, i8, %"class.std::basic_streambuf"*, %"class.std::ctype"*, %"class.std::num_put"*, %"class.std::num_get"* }
%"class.std::ios_base" = type { i32 (...)**, i64, i64, i32, i32, i32, %"struct.std::ios_base::_Callback_list"*, %"struct.std::ios_base::_Words", [8 x %"struct.std::ios_base::_Words"], i32, %"struct.std::ios_base::_Words"*, %"class.std::locale" }
%"struct.std::ios_base::_Callback_list" = type { %"struct.std::ios_base::_Callback_list"*, void (i32, %"class.std::ios_base"*, i32)*, i32, i32 }
%"struct.std::ios_base::_Words" = type { i8*, i64 }
%"class.std::locale" = type { %"class.std::locale::_Impl"* }
%"class.std::locale::_Impl" = type { i32, %"class.std::locale::facet"**, i64, %"class.std::locale::facet"**, i8** }
%"class.std::locale::facet" = type <{ i32 (...)**, i32, [4 x i8] }>
%"class.std::basic_ostream" = type { i32 (...)**, %"class.std::basic_ios" }
%"class.std::basic_streambuf" = type { i32 (...)**, i8*, i8*, i8*, i8*, i8*, i8*, %"class.std::locale" }
%"class.std::ctype" = type <{ %"class.std::locale::facet.base", [4 x i8], %struct.__locale_struct*, i8, [7 x i8], i32*, i32*, i16*, i8, [256 x i8], [256 x i8], i8, [6 x i8] }>
%"class.std::locale::facet.base" = type <{ i32 (...)**, i32 }>
%struct.__locale_struct = type { [13 x %struct.__locale_data*], i16*, i32*, i32*, [13 x i8*] }
%struct.__locale_data = type opaque
%"class.std::num_put" = type { %"class.std::locale::facet.base", [4 x i8] }
%"class.std::num_get" = type { %"class.std::locale::facet.base", [4 x i8] }

@_ZStL8__ioinit = internal global %"class.std::ios_base::Init" zeroinitializer, align 1
@__dso_handle = external hidden global i8
@_ZSt3cin = external global %"class.std::basic_istream", align 8
@_ZSt4cout = external global %"class.std::basic_ostream", align 8
@llvm.global_ctors = appending global [1 x { i32, void ()*, i8* }] [{ i32, void ()*, i8* } { i32 65535, void ()* @_GLOBAL__sub_I_288.cpp, i8* null }]

declare void @_ZNSt8ios_base4InitC1Ev(%"class.std::ios_base::Init"* nonnull align 1 dereferenceable(1)) unnamed_addr #0

; Function Attrs: nounwind
declare void @_ZNSt8ios_base4InitD1Ev(%"class.std::ios_base::Init"* nonnull align 1 dereferenceable(1)) unnamed_addr #1

; Function Attrs: nofree nounwind
declare i32 @__cxa_atexit(void (i8*)*, i8*, i8*) local_unnamed_addr #2

; Function Attrs: mustprogress norecurse sspstrong uwtable
define dso_local i32 @main() local_unnamed_addr #3 {
  %1 = alloca i32, align 4
  %2 = alloca [100 x [100 x i32]], align 16
  %3 = bitcast i32* %1 to i8*
  call void @llvm.lifetime.start.p0i8(i64 4, i8* nonnull %3) #7
  %4 = bitcast [100 x [100 x i32]]* %2 to i8*
  call void @llvm.lifetime.start.p0i8(i64 40000, i8* nonnull %4) #7
  %5 = call nonnull align 8 dereferenceable(16) %"class.std::basic_istream"* @_ZNSirsERi(%"class.std::basic_istream"* nonnull align 8 dereferenceable(16) @_ZSt3cin, i32* nonnull align 4 dereferenceable(4) %1)
  %6 = load i32, i32* %1, align 4, !tbaa !5
  %7 = icmp sgt i32 %6, 0
  br i1 %7, label %8, label %75

8:                                                ; preds = %0, %70
  %9 = phi i32 [ %71, %70 ], [ %6, %0 ]
  %10 = phi i64 [ %73, %70 ], [ 0, %0 ]
  %11 = icmp sgt i32 %9, 0
  br i1 %11, label %62, label %70

12:                                               ; preds = %70
  %13 = icmp sgt i32 %71, 0
  br i1 %13, label %14, label %75

14:                                               ; preds = %12
  %15 = zext i32 %71 to i64
  br label %16

16:                                               ; preds = %14, %41
  %17 = phi i64 [ 0, %14 ], [ %43, %41 ]
  %18 = phi i32 [ 0, %14 ], [ %42, %41 ]
  %19 = icmp eq i32 %18, 0
  br i1 %19, label %54, label %45

20:                                               ; preds = %51, %20
  %21 = phi i64 [ %53, %51 ], [ %25, %20 ]
  %22 = getelementptr inbounds [100 x [100 x i32]], [100 x [100 x i32]]* %2, i64 0, i64 %17, i64 %21
  %23 = load i32, i32* %22, align 4, !tbaa !5
  %24 = icmp eq i32 %23, 0
  %25 = add nuw i64 %21, 1
  br i1 %24, label %20, label %26, !llvm.loop !9

26:                                               ; preds = %20, %26
  %27 = phi i64 [ %31, %26 ], [ %17, %20 ]
  %28 = getelementptr inbounds [100 x [100 x i32]], [100 x [100 x i32]]* %2, i64 0, i64 %27, i64 %53
  %29 = load i32, i32* %28, align 4, !tbaa !5
  %30 = icmp eq i32 %29, 0
  %31 = add nuw i64 %27, 1
  br i1 %30, label %26, label %32, !llvm.loop !11

32:                                               ; preds = %26
  %33 = trunc i64 %21 to i32
  %34 = trunc i64 %27 to i32
  %35 = sub nuw i32 -2, %52
  %36 = add i32 %35, %33
  %37 = trunc i64 %17 to i32
  %38 = sub i32 -2, %37
  %39 = add i32 %38, %34
  %40 = mul nsw i32 %39, %36
  br label %41

41:                                               ; preds = %59, %45, %32
  %42 = phi i32 [ %40, %32 ], [ %18, %45 ], [ 0, %59 ]
  %43 = add nuw nsw i64 %17, 1
  %44 = icmp eq i64 %43, %15
  br i1 %44, label %75, label %16, !llvm.loop !12

45:                                               ; preds = %16
  %46 = getelementptr inbounds [100 x [100 x i32]], [100 x [100 x i32]]* %2, i64 0, i64 %17, i64 0
  %47 = load i32, i32* %46, align 16, !tbaa !5
  %48 = icmp eq i32 %47, 0
  br i1 %48, label %51, label %41

49:                                               ; preds = %54
  %50 = trunc i64 %55 to i32
  br label %51

51:                                               ; preds = %49, %45
  %52 = phi i32 [ 0, %45 ], [ %50, %49 ]
  %53 = zext i32 %52 to i64
  br label %20

54:                                               ; preds = %16, %59
  %55 = phi i64 [ %60, %59 ], [ 0, %16 ]
  %56 = getelementptr inbounds [100 x [100 x i32]], [100 x [100 x i32]]* %2, i64 0, i64 %17, i64 %55
  %57 = load i32, i32* %56, align 4, !tbaa !5
  %58 = icmp eq i32 %57, 0
  br i1 %58, label %49, label %59

59:                                               ; preds = %54
  %60 = add nuw nsw i64 %55, 1
  %61 = icmp eq i64 %60, %15
  br i1 %61, label %41, label %54, !llvm.loop !13

62:                                               ; preds = %8, %62
  %63 = phi i64 [ %66, %62 ], [ 0, %8 ]
  %64 = getelementptr inbounds [100 x [100 x i32]], [100 x [100 x i32]]* %2, i64 0, i64 %10, i64 %63
  %65 = call nonnull align 8 dereferenceable(16) %"class.std::basic_istream"* @_ZNSirsERi(%"class.std::basic_istream"* nonnull align 8 dereferenceable(16) @_ZSt3cin, i32* nonnull align 4 dereferenceable(4) %64)
  %66 = add nuw nsw i64 %63, 1
  %67 = load i32, i32* %1, align 4, !tbaa !5
  %68 = sext i32 %67 to i64
  %69 = icmp slt i64 %66, %68
  br i1 %69, label %62, label %70, !llvm.loop !14

70:                                               ; preds = %62, %8
  %71 = phi i32 [ %9, %8 ], [ %67, %62 ]
  %72 = sext i32 %71 to i64
  %73 = add nuw nsw i64 %10, 1
  %74 = icmp slt i64 %73, %72
  br i1 %74, label %8, label %12, !llvm.loop !15

75:                                               ; preds = %41, %0, %12
  %76 = phi i32 [ 0, %12 ], [ 0, %0 ], [ %42, %41 ]
  %77 = call nonnull align 8 dereferenceable(8) %"class.std::basic_ostream"* @_ZNSolsEi(%"class.std::basic_ostream"* nonnull align 8 dereferenceable(8) @_ZSt4cout, i32 %76)
  %78 = bitcast %"class.std::basic_ostream"* %77 to i8**
  %79 = load i8*, i8** %78, align 8, !tbaa !17
  %80 = getelementptr i8, i8* %79, i64 -24
  %81 = bitcast i8* %80 to i64*
  %82 = load i64, i64* %81, align 8
  %83 = bitcast %"class.std::basic_ostream"* %77 to i8*
  %84 = add nsw i64 %82, 240
  %85 = getelementptr inbounds i8, i8* %83, i64 %84
  %86 = bitcast i8* %85 to %"class.std::ctype"**
  %87 = load %"class.std::ctype"*, %"class.std::ctype"** %86, align 8, !tbaa !19
  %88 = icmp eq %"class.std::ctype"* %87, null
  br i1 %88, label %89, label %90

89:                                               ; preds = %75
  call void @_ZSt16__throw_bad_castv() #8
  unreachable

90:                                               ; preds = %75
  %91 = getelementptr inbounds %"class.std::ctype", %"class.std::ctype"* %87, i64 0, i32 8
  %92 = load i8, i8* %91, align 8, !tbaa !23
  %93 = icmp eq i8 %92, 0
  br i1 %93, label %97, label %94

94:                                               ; preds = %90
  %95 = getelementptr inbounds %"class.std::ctype", %"class.std::ctype"* %87, i64 0, i32 9, i64 10
  %96 = load i8, i8* %95, align 1, !tbaa !25
  br label %103

97:                                               ; preds = %90
  call void @_ZNKSt5ctypeIcE13_M_widen_initEv(%"class.std::ctype"* nonnull align 8 dereferenceable(570) %87)
  %98 = bitcast %"class.std::ctype"* %87 to i8 (%"class.std::ctype"*, i8)***
  %99 = load i8 (%"class.std::ctype"*, i8)**, i8 (%"class.std::ctype"*, i8)*** %98, align 8, !tbaa !17
  %100 = getelementptr inbounds i8 (%"class.std::ctype"*, i8)*, i8 (%"class.std::ctype"*, i8)** %99, i64 6
  %101 = load i8 (%"class.std::ctype"*, i8)*, i8 (%"class.std::ctype"*, i8)** %100, align 8
  %102 = call signext i8 %101(%"class.std::ctype"* nonnull align 8 dereferenceable(570) %87, i8 signext 10)
  br label %103

103:                                              ; preds = %94, %97
  %104 = phi i8 [ %96, %94 ], [ %102, %97 ]
  %105 = call nonnull align 8 dereferenceable(8) %"class.std::basic_ostream"* @_ZNSo3putEc(%"class.std::basic_ostream"* nonnull align 8 dereferenceable(8) %77, i8 signext %104)
  %106 = call nonnull align 8 dereferenceable(8) %"class.std::basic_ostream"* @_ZNSo5flushEv(%"class.std::basic_ostream"* nonnull align 8 dereferenceable(8) %105)
  call void @llvm.lifetime.end.p0i8(i64 40000, i8* nonnull %4) #7
  call void @llvm.lifetime.end.p0i8(i64 4, i8* nonnull %3) #7
  ret i32 0
}

; Function Attrs: argmemonly mustprogress nofree nosync nounwind willreturn
declare void @llvm.lifetime.start.p0i8(i64 immarg, i8* nocapture) #4

declare nonnull align 8 dereferenceable(16) %"class.std::basic_istream"* @_ZNSirsERi(%"class.std::basic_istream"* nonnull align 8 dereferenceable(16), i32* nonnull align 4 dereferenceable(4)) local_unnamed_addr #0

declare nonnull align 8 dereferenceable(8) %"class.std::basic_ostream"* @_ZNSolsEi(%"class.std::basic_ostream"* nonnull align 8 dereferenceable(8), i32) local_unnamed_addr #0

; Function Attrs: argmemonly mustprogress nofree nosync nounwind willreturn
declare void @llvm.lifetime.end.p0i8(i64 immarg, i8* nocapture) #4

declare nonnull align 8 dereferenceable(8) %"class.std::basic_ostream"* @_ZNSo3putEc(%"class.std::basic_ostream"* nonnull align 8 dereferenceable(8), i8 signext) local_unnamed_addr #0

declare nonnull align 8 dereferenceable(8) %"class.std::basic_ostream"* @_ZNSo5flushEv(%"class.std::basic_ostream"* nonnull align 8 dereferenceable(8)) local_unnamed_addr #0

; Function Attrs: noreturn
declare void @_ZSt16__throw_bad_castv() local_unnamed_addr #5

declare void @_ZNKSt5ctypeIcE13_M_widen_initEv(%"class.std::ctype"* nonnull align 8 dereferenceable(570)) local_unnamed_addr #0

; Function Attrs: sspstrong uwtable
define internal void @_GLOBAL__sub_I_288.cpp() #6 section ".text.startup" {
  tail call void @_ZNSt8ios_base4InitC1Ev(%"class.std::ios_base::Init"* nonnull align 1 dereferenceable(1) @_ZStL8__ioinit)
  %1 = tail call i32 @__cxa_atexit(void (i8*)* bitcast (void (%"class.std::ios_base::Init"*)* @_ZNSt8ios_base4InitD1Ev to void (i8*)*), i8* getelementptr inbounds (%"class.std::ios_base::Init", %"class.std::ios_base::Init"* @_ZStL8__ioinit, i64 0, i32 0), i8* nonnull @__dso_handle) #7
  ret void
}


!llvm.module.flags = !{!0, !1, !2, !3}
!llvm.ident = !{!4}

!0 = !{i32 1, !"wchar_size", i32 4}
!1 = !{i32 7, !"PIC Level", i32 2}
!2 = !{i32 7, !"PIE Level", i32 2}
!3 = !{i32 7, !"uwtable", i32 1}
!4 = !{!"clang version 13.0.0"}
!5 = !{!6, !6, i64 0}
!6 = !{!"int", !7, i64 0}
!7 = !{!"omnipotent char", !8, i64 0}
!8 = !{!"Simple C++ TBAA"}
!9 = distinct !{!9, !10}
!10 = !{!"llvm.loop.mustprogress"}
!11 = distinct !{!11, !10}
!12 = distinct !{!12, !10}
!13 = distinct !{!13, !10}
!14 = distinct !{!14, !10}
!15 = distinct !{!15, !10, !16}
!16 = !{!"llvm.loop.unswitch.partial.disable"}
!17 = !{!18, !18, i64 0}
!18 = !{!"vtable pointer", !8, i64 0}
!19 = !{!20, !21, i64 240}
!20 = !{!"_ZTSSt9basic_iosIcSt11char_traitsIcEE", !21, i64 216, !7, i64 224, !22, i64 225, !21, i64 232, !21, i64 240, !21, i64 248, !21, i64 256}
!21 = !{!"any pointer", !7, i64 0}
!22 = !{!"bool", !7, i64 0}
!23 = !{!24, !7, i64 56}
!24 = !{!"_ZTSSt5ctypeIcE", !21, i64 16, !22, i64 24, !21, i64 32, !21, i64 40, !21, i64 48, !7, i64 56, !7, i64 57, !7, i64 313, !7, i64 569}
!25 = !{!7, !7, i64 0}
